target datalayout = "e-m:e-p270:32:32-p271:32:32-p272:64:64-i64:64-i128:128-f80:128-n8:16:32:64-S128"
target triple = "x86_64-unknown-linux-gnu"

%struct.Options = type { i8, %"class.std::__cxx11::basic_string", ptr }
%"class.std::__cxx11::basic_string" = type { %"struct.std::__cxx11::basic_string<char>::_Alloc_hider", i64, %union.anon }
%"struct.std::__cxx11::basic_string<char>::_Alloc_hider" = type { ptr }
%union.anon = type { i64, [8 x i8] }
%"class.struct_pb::compiler::FieldGenerator" = type { ptr, %"class.struct_pb::compiler::GeneratorBase", ptr }
%"class.struct_pb::compiler::GeneratorBase" = type { %struct.Options }

@_ZTVN9struct_pb8compiler14FieldGeneratorE = external unnamed_addr constant { [7 x ptr] }, align 8

; Function Attrs: mustprogress uwtable
define linkonce_odr dso_local void @_ZN9struct_pb8compiler13GeneratorBaseC2E7Options(ptr noundef nonnull align 8 dereferenceable(48) %this, ptr noundef %options) unnamed_addr #4 comdat align 2 {
entry:
  %this.addr = alloca ptr, align 8
  %options.indirect_addr = alloca ptr, align 8
  store ptr %this, ptr %this.addr, align 8
  store ptr %options, ptr %options.indirect_addr, align 8
  %this1 = load ptr, ptr %this.addr, align 8
  %options_ = getelementptr inbounds %"class.struct_pb::compiler::GeneratorBase", ptr %this1, i32 0, i32 0
  call void @_ZN7OptionsC2ERKS_(ptr noundef nonnull align 8 dereferenceable(48) %options_, ptr noundef nonnull align 8 dereferenceable(48) %options)
  ret void
}

; Function Attrs: mustprogress uwtable
define linkonce_odr dso_local void @_ZN7OptionsC2ERKS_(ptr noundef nonnull align 8 dereferenceable(48) %this, ptr noundef nonnull align 8 dereferenceable(48) %0) unnamed_addr #4 comdat align 2 {
entry:
  %this.addr = alloca ptr, align 8
  %.addr = alloca ptr, align 8
  store ptr %this, ptr %this.addr, align 8
  store ptr %0, ptr %.addr, align 8
  %this1 = load ptr, ptr %this.addr, align 8
  %generate_eq_op = getelementptr inbounds %struct.Options, ptr %this1, i32 0, i32 0
  %1 = load ptr, ptr %.addr, align 8
  %generate_eq_op2 = getelementptr inbounds %struct.Options, ptr %1, i32 0, i32 0
  %2 = load i8, ptr %generate_eq_op2, align 8
  %tobool = trunc i8 %2 to i1
  %frombool = zext i1 %tobool to i8
  store i8 %frombool, ptr %generate_eq_op, align 8
  %ns = getelementptr inbounds %struct.Options, ptr %this1, i32 0, i32 1
  %3 = load ptr, ptr %.addr, align 8
  %ns3 = getelementptr inbounds %struct.Options, ptr %3, i32 0, i32 1
  call void @_ZNSt7__cxx1112basic_stringIcSt11char_traitsIcESaIcEEC2ERKS4_(ptr noundef nonnull align 8 dereferenceable(32) %ns, ptr noundef nonnull align 8 dereferenceable(32) %ns3)
  %f = getelementptr inbounds %struct.Options, ptr %this1, i32 0, i32 2
  %4 = load ptr, ptr %.addr, align 8
  %f4 = getelementptr inbounds %struct.Options, ptr %4, i32 0, i32 2
  %5 = load ptr, ptr %f4, align 8
  store ptr %5, ptr %f, align 8
  ret void
}

; Function Attrs: mustprogress uwtable
define linkonce_odr dso_local void @_ZN9struct_pb8compiler14FieldGeneratorC2EPKN6google8protobuf15FieldDescriptorERK7Options(ptr noundef nonnull align 8 dereferenceable(64) %this, ptr noundef %d, ptr noundef nonnull align 8 dereferenceable(48) %options) unnamed_addr #4 comdat align 2 personality ptr @__gxx_personality_v0 {
entry:
  %this.addr = alloca ptr, align 8
  %d.addr = alloca ptr, align 8
  %options.addr = alloca ptr, align 8
  %agg.tmp = alloca %struct.Options, align 8
  %exn.slot = alloca ptr, align 8
  %ehselector.slot = alloca i32, align 4
  store ptr %this, ptr %this.addr, align 8
  store ptr %d, ptr %d.addr, align 8
  store ptr %options, ptr %options.addr, align 8
  %this1 = load ptr, ptr %this.addr, align 8
  %0 = getelementptr inbounds i8, ptr %this1, i64 8
  %1 = load ptr, ptr %options.addr, align 8
  call void @_ZN7OptionsC2ERKS_(ptr noundef nonnull align 8 dereferenceable(48) %agg.tmp, ptr noundef nonnull align 8 dereferenceable(48) %1)
  invoke void @_ZN9struct_pb8compiler13GeneratorBaseC2E7Options(ptr noundef nonnull align 8 dereferenceable(48) %0, ptr noundef %agg.tmp)
          to label %invoke.cont unwind label %lpad

invoke.cont:                                      ; preds = %entry
  call void @_ZN7OptionsD2Ev(ptr noundef nonnull align 8 dereferenceable(48) %agg.tmp) #3
  store ptr getelementptr inbounds ({ [7 x ptr] }, ptr @_ZTVN9struct_pb8compiler14FieldGeneratorE, i32 0, i32 0, i32 2), ptr %this1, align 8
  %d_ = getelementptr inbounds %"class.struct_pb::compiler::FieldGenerator", ptr %this1, i32 0, i32 2
  %2 = load ptr, ptr %d.addr, align 8
  store ptr %2, ptr %d_, align 8
  ret void

lpad:                                             ; preds = %entry
  %3 = landingpad { ptr, i32 }
          cleanup
  %4 = extractvalue { ptr, i32 } %3, 0
  store ptr %4, ptr %exn.slot, align 8
  %5 = extractvalue { ptr, i32 } %3, 1
  store i32 %5, ptr %ehselector.slot, align 4
  call void @_ZN7OptionsD2Ev(ptr noundef nonnull align 8 dereferenceable(48) %agg.tmp) #3
  br label %eh.resume

eh.resume:                                        ; preds = %lpad
  %exn = load ptr, ptr %exn.slot, align 8
  %sel = load i32, ptr %ehselector.slot, align 4
  %lpad.val = insertvalue { ptr, i32 } poison, ptr %exn, 0
  %lpad.val2 = insertvalue { ptr, i32 } %lpad.val, i32 %sel, 1
  resume { ptr, i32 } %lpad.val2
}

; Function Attrs: mustprogress uwtable
define dso_local void @_ZN9struct_pb8compiler29RepeatedMessageFieldGeneratorC2EPKN6google8protobuf15FieldDescriptorERK7Options(ptr noundef nonnull align 8 dereferenceable(64) %this, ptr noundef %field, ptr noundef nonnull align 8 dereferenceable(48) %options) unnamed_addr #4 align 2 {
entry:
  %this.addr = alloca ptr, align 8
  %field.addr = alloca ptr, align 8
  %options.addr = alloca ptr, align 8
  store ptr %this, ptr %this.addr, align 8
  store ptr %field, ptr %field.addr, align 8
  store ptr %options, ptr %options.addr, align 8
  %this1 = load ptr, ptr %this.addr, align 8
  %0 = load ptr, ptr %field.addr, align 8
  %1 = load ptr, ptr %options.addr, align 8
  call void @_ZN9struct_pb8compiler14FieldGeneratorC2EPKN6google8protobuf15FieldDescriptorERK7Options(ptr noundef nonnull align 8 dereferenceable(64) %this1, ptr noundef %0, ptr noundef nonnull align 8 dereferenceable(48) %1)
  store ptr getelementptr inbounds ({ [7 x ptr] }, ptr @_ZTVN9struct_pb8compiler29RepeatedMessageFieldGeneratorE, i32 0, i32 0, i32 2), ptr %this1, align 8
  ret void
}